target datalayout = "e-m:e-p270:32:32-p271:32:32-p272:64:64-i64:64-i128:128-f80:128-n8:16:32:64-S128"
target triple = "x86_64-pc-linux-gnu"

@.str.4 = private unnamed_addr constant [22 x i8] c"could not setenv '%s'\00", align 1
@.str.5 = private unnamed_addr constant [7 x i8] c"(null)\00", align 1

; Function Attrs: nounwind uwtable
define dso_local void @xsetenv(ptr noundef %0, ptr noundef %1, i32 noundef %2) #0 {
  %4 = alloca ptr, align 8
  %5 = alloca ptr, align 8
  %6 = alloca i32, align 4
  store ptr %0, ptr %4, align 8, !tbaa !4
  store ptr %1, ptr %5, align 8, !tbaa !4
  store i32 %2, ptr %6, align 4, !tbaa !11
  %7 = load ptr, ptr %4, align 8, !tbaa !4
  %8 = load ptr, ptr %5, align 8, !tbaa !4
  %9 = load i32, ptr %6, align 4, !tbaa !11
  %10 = call i32 @setenv(ptr noundef %7, ptr noundef %8, i32 noundef %9) #13
  %11 = icmp ne i32 %10, 0
  br i1 %11, label %12, label %21

12:                                               ; preds = %3
  %13 = call ptr @_(ptr noundef @.str.4)
  %14 = load ptr, ptr %4, align 8, !tbaa !4
  %15 = icmp ne ptr %14, null
  br i1 %15, label %16, label %18

16:                                               ; preds = %12
  %17 = load ptr, ptr %4, align 8, !tbaa !4
  br label %19

18:                                               ; preds = %12
  br label %19

19:                                               ; preds = %18, %16
  %20 = phi ptr [ %17, %16 ], [ @.str.5, %18 ]
  call void (ptr, ...) @die_errno(ptr noundef %13, ptr noundef %20) #14
  unreachable

21:                                               ; preds = %3
  ret void
}