; Function Attrs: nounwind uwtable
define dso_local void @xsetenv(ptr noundef %0, ptr noundef %1, i32 noundef %2) local_unnamed_addr #0 {
  %4 = tail call i32 @setenv(ptr noundef %0, ptr noundef %1, i32 noundef %2) #20
  %.not = icmp eq i32 %4, 0
  br i1 %.not, label %8, label %5

5:                                                ; preds = %3
  %6 = tail call fastcc ptr @_(ptr noundef nonnull @.str.4)
  %.not4 = icmp eq ptr %0, null
  %7 = select i1 %.not4, ptr @.str.5, ptr %0
  tail call void (ptr, ...) @die_errno(ptr noundef %6, ptr noundef nonnull %7) #21
  unreachable

8:                                                ; preds = %3
  ret void
}